target datalayout = "e-m:e-p270:32:32-p271:32:32-p272:64:64-i64:64-i128:128-f80:128-n8:16:32:64-S128"
target triple = "x86_64-pc-linux-gnu"

%struct._asn1_ctx_t = type { i32, i32, i8, ptr, ptr, ptr, ptr, ptr, %struct.anon, %struct.anon.2, %struct.anon.3, ptr }
%struct.anon = type { i32, i8, i8, i8, ptr, ptr, i32, i32, ptr, ptr, ptr, %union.anon }
%union.anon = type { %struct.anon.0 }
%struct.anon.0 = type { ptr }
%struct.anon.2 = type { ptr, ptr, ptr }
%struct.anon.3 = type { i32, i8, ptr, i32, i32, ptr, ptr, ptr, %union.anon.4 }
%union.anon.4 = type { %struct.anon.5 }
%struct.anon.5 = type { ptr }
%struct.mms_actx_private_data_t = type { i32, i32, i32, i32, i32, i16, ptr, i32, i32, i32, ptr, ptr, i32 }

@ett_mms_AccessResult = internal global i32 0, align 4

; Function Attrs: null_pointer_is_valid sspstrong uwtable
define internal i32 @dissect_mms_AccessResult(i1 noundef zeroext %0, ptr noundef %1, i32 noundef %2, ptr noundef %3, ptr noundef %4, i32 noundef %5) #0 {
  %7 = alloca i8, align 1
  %8 = alloca ptr, align 8
  %9 = alloca i32, align 4
  %10 = alloca ptr, align 8
  %11 = alloca ptr, align 8
  %12 = alloca i32, align 4
  %13 = alloca i32, align 4
  %14 = alloca ptr, align 8
  %15 = alloca i8, align 1
  %16 = zext i1 %0 to i8
  store i8 %16, ptr %7, align 1
  store ptr %1, ptr %8, align 8
  store i32 %2, ptr %9, align 4
  store ptr %3, ptr %10, align 8
  store ptr %4, ptr %11, align 8
  store i32 %5, ptr %12, align 4
  call void @llvm.lifetime.start.p0(i64 4, ptr %13) #8
  call void @llvm.lifetime.start.p0(i64 8, ptr %14) #8
  %17 = load ptr, ptr %10, align 8
  %18 = getelementptr inbounds nuw %struct._asn1_ctx_t, ptr %17, i32 0, i32 7
  %19 = load ptr, ptr %18, align 8
  store ptr %19, ptr %14, align 8
  %20 = load ptr, ptr %14, align 8
  %21 = icmp ne ptr %20, null
  br i1 %21, label %22, label %128

22:                                               ; preds = %6
  call void @llvm.lifetime.start.p0(i64 1, ptr %15) #8
  br label %23

23:                                               ; preds = %123, %22
  %24 = load ptr, ptr %14, align 8
  %25 = getelementptr inbounds nuw %struct.mms_actx_private_data_t, ptr %24, i32 0, i32 3
  %26 = load i32, ptr %25, align 4
  %27 = add i32 %26, 1
  store i32 %27, ptr %25, align 4
  store i8 1, ptr %15, align 1
  %28 = load ptr, ptr %14, align 8
  %29 = getelementptr inbounds nuw %struct.mms_actx_private_data_t, ptr %28, i32 0, i32 3
  %30 = load i32, ptr %29, align 4
  switch i32 %30, label %121 [
    i32 1, label %122
    i32 2, label %122
    i32 3, label %31
    i32 4, label %40
    i32 5, label %49
    i32 6, label %58
    i32 7, label %67
    i32 8, label %76
    i32 9, label %85
    i32 10, label %94
    i32 11, label %122
    i32 12, label %103
    i32 13, label %122
    i32 14, label %112
  ]

31:                                               ; preds = %23
  %32 = load ptr, ptr %14, align 8
  %33 = getelementptr inbounds nuw %struct.mms_actx_private_data_t, ptr %32, i32 0, i32 5
  %34 = load i16, ptr %33, align 4
  %35 = zext i16 %34 to i32
  %36 = and i32 %35, 16384
  %37 = icmp ne i32 %36, 16384
  br i1 %37, label %38, label %39

38:                                               ; preds = %31
  store i8 0, ptr %15, align 1
  br label %39

39:                                               ; preds = %38, %31
  br label %122

40:                                               ; preds = %23
  %41 = load ptr, ptr %14, align 8
  %42 = getelementptr inbounds nuw %struct.mms_actx_private_data_t, ptr %41, i32 0, i32 5
  %43 = load i16, ptr %42, align 4
  %44 = zext i16 %43 to i32
  %45 = and i32 %44, 8192
  %46 = icmp ne i32 %45, 8192
  br i1 %46, label %47, label %48

47:                                               ; preds = %40
  store i8 0, ptr %15, align 1
  br label %48

48:                                               ; preds = %47, %40
  br label %122

49:                                               ; preds = %23
  %50 = load ptr, ptr %14, align 8
  %51 = getelementptr inbounds nuw %struct.mms_actx_private_data_t, ptr %50, i32 0, i32 5
  %52 = load i16, ptr %51, align 4
  %53 = zext i16 %52 to i32
  %54 = and i32 %53, 2048
  %55 = icmp ne i32 %54, 2048
  br i1 %55, label %56, label %57

56:                                               ; preds = %49
  store i8 0, ptr %15, align 1
  br label %57

57:                                               ; preds = %56, %49
  br label %122

58:                                               ; preds = %23
  %59 = load ptr, ptr %14, align 8
  %60 = getelementptr inbounds nuw %struct.mms_actx_private_data_t, ptr %59, i32 0, i32 5
  %61 = load i16, ptr %60, align 4
  %62 = zext i16 %61 to i32
  %63 = and i32 %62, 512
  %64 = icmp ne i32 %63, 512
  br i1 %64, label %65, label %66

65:                                               ; preds = %58
  store i8 0, ptr %15, align 1
  br label %66

66:                                               ; preds = %65, %58
  br label %122

67:                                               ; preds = %23
  %68 = load ptr, ptr %14, align 8
  %69 = getelementptr inbounds nuw %struct.mms_actx_private_data_t, ptr %68, i32 0, i32 5
  %70 = load i16, ptr %69, align 4
  %71 = zext i16 %70 to i32
  %72 = and i32 %71, 256
  %73 = icmp ne i32 %72, 256
  br i1 %73, label %74, label %75

74:                                               ; preds = %67
  store i8 0, ptr %15, align 1
  br label %75

75:                                               ; preds = %74, %67
  br label %122

76:                                               ; preds = %23
  %77 = load ptr, ptr %14, align 8
  %78 = getelementptr inbounds nuw %struct.mms_actx_private_data_t, ptr %77, i32 0, i32 5
  %79 = load i16, ptr %78, align 4
  %80 = zext i16 %79 to i32
  %81 = and i32 %80, 128
  %82 = icmp ne i32 %81, 128
  br i1 %82, label %83, label %84

83:                                               ; preds = %76
  store i8 0, ptr %15, align 1
  br label %84

84:                                               ; preds = %83, %76
  br label %122

85:                                               ; preds = %23
  %86 = load ptr, ptr %14, align 8
  %87 = getelementptr inbounds nuw %struct.mms_actx_private_data_t, ptr %86, i32 0, i32 5
  %88 = load i16, ptr %87, align 4
  %89 = zext i16 %88 to i32
  %90 = and i32 %89, 64
  %91 = icmp ne i32 %90, 64
  br i1 %91, label %92, label %93

92:                                               ; preds = %85
  store i8 0, ptr %15, align 1
  br label %93

93:                                               ; preds = %92, %85
  br label %122

94:                                               ; preds = %23
  %95 = load ptr, ptr %14, align 8
  %96 = getelementptr inbounds nuw %struct.mms_actx_private_data_t, ptr %95, i32 0, i32 5
  %97 = load i16, ptr %96, align 4
  %98 = zext i16 %97 to i32
  %99 = and i32 %98, 64
  %100 = icmp ne i32 %99, 64
  br i1 %100, label %101, label %102

101:                                              ; preds = %94
  store i8 0, ptr %15, align 1
  br label %102

102:                                              ; preds = %101, %94
  br label %122

103:                                              ; preds = %23
  %104 = load ptr, ptr %14, align 8
  %105 = getelementptr inbounds nuw %struct.mms_actx_private_data_t, ptr %104, i32 0, i32 5
  %106 = load i16, ptr %105, align 4
  %107 = zext i16 %106 to i32
  %108 = and i32 %107, 1024
  %109 = icmp ne i32 %108, 1024
  br i1 %109, label %110, label %111

110:                                              ; preds = %103
  store i8 0, ptr %15, align 1
  br label %111

111:                                              ; preds = %110, %103
  br label %122

112:                                              ; preds = %23
  %113 = load ptr, ptr %14, align 8
  %114 = getelementptr inbounds nuw %struct.mms_actx_private_data_t, ptr %113, i32 0, i32 5
  %115 = load i16, ptr %114, align 4
  %116 = zext i16 %115 to i32
  %117 = and i32 %116, 4096
  %118 = icmp ne i32 %117, 4096
  br i1 %118, label %119, label %120

119:                                              ; preds = %112
  store i8 0, ptr %15, align 1
  br label %120

120:                                              ; preds = %119, %112
  br label %122

121:                                              ; preds = %23
  br label %122

122:                                              ; preds = %121, %120, %23, %111, %23, %23, %23, %102, %93, %84, %75, %66, %57, %48, %39
  br label %123

123:                                              ; preds = %122
  %124 = load i8, ptr %15, align 1, !range !6, !noundef !7
  %125 = trunc i8 %124 to i1
  %126 = xor i1 %125, true
  br i1 %126, label %23, label %127, !llvm.loop !10

127:                                              ; preds = %123
  call void @llvm.lifetime.end.p0(i64 1, ptr %15) #8
  br label %128

128:                                              ; preds = %127, %6
  %129 = load ptr, ptr %10, align 8
  %130 = load ptr, ptr %11, align 8
  %131 = load ptr, ptr %8, align 8
  %132 = load i32, ptr %9, align 4
  %133 = load i32, ptr %12, align 4
  %134 = load i32, ptr @ett_mms_AccessResult, align 4
  %135 = call i32 @dissect_ber_choice(ptr noundef %129, ptr noundef %130, ptr noundef %131, i32 noundef %132, ptr noundef @AccessResult_choice, i32 noundef %133, i32 noundef %134, ptr noundef %13)
  store i32 %135, ptr %9, align 4
  %136 = load ptr, ptr %14, align 8
  %137 = icmp ne ptr %136, null
  br i1 %137, label %138, label %142

138:                                              ; preds = %128
  %139 = load i32, ptr %13, align 4
  %140 = load ptr, ptr %14, align 8
  %141 = getelementptr inbounds nuw %struct.mms_actx_private_data_t, ptr %140, i32 0, i32 12
  store i32 %139, ptr %141, align 8
  br label %142

142:                                              ; preds = %138, %128
  %143 = load i32, ptr %9, align 4
  call void @llvm.lifetime.end.p0(i64 8, ptr %14) #8
  call void @llvm.lifetime.end.p0(i64 4, ptr %13) #8
  ret i32 %143
}