; Function Attrs: null_pointer_is_valid sspstrong uwtable
define internal i32 @dissect_mms_AccessResult(i1 zeroext %0, ptr noundef %1, i32 noundef %2, ptr noundef %3, ptr noundef %4, i32 noundef %5) #0 {
  %7 = alloca i32, align 4
  call void @llvm.lifetime.start.p0(i64 4, ptr nonnull %7) #8
  %8 = getelementptr inbounds nuw i8, ptr %3, i64 48
  %9 = load ptr, ptr %8, align 8
  %.not = icmp eq ptr %9, null
  br i1 %.not, label %.critedge.thread, label %.preheader

.preheader:                                       ; preds = %6
  %10 = getelementptr inbounds nuw i8, ptr %9, i64 20
  %11 = getelementptr inbounds nuw i8, ptr %9, i64 12
  %.promoted = load i32, ptr %11, align 4
  br label %.backedge

.critedge.thread:                                 ; preds = %6
  %12 = load i32, ptr @ett_mms_AccessResult, align 4
  %13 = call i32 @dissect_ber_choice(ptr noundef %3, ptr noundef %4, ptr noundef %1, i32 noundef %2, ptr noundef nonnull @AccessResult_choice, i32 noundef %5, i32 noundef %12, ptr noundef nonnull %7)
  br label %50

.backedge:                                        ; preds = %.backedge.backedge, %.preheader
  %14 = phi i32 [ %.promoted, %.preheader ], [ %15, %.backedge.backedge ]
  %15 = add i32 %14, 1
  switch i32 %14, label %.critedge [
    i32 13, label %43
    i32 11, label %40
    i32 2, label %16
    i32 3, label %19
    i32 4, label %22
    i32 5, label %25
    i32 6, label %28
    i32 7, label %31
    i32 8, label %34
    i32 9, label %37
  ]

16:                                               ; preds = %.backedge
  %17 = load i16, ptr %10, align 4
  %18 = and i16 %17, 16384
  %.not30.not = icmp eq i16 %18, 0
  br i1 %.not30.not, label %.backedge.backedge, label %.critedge

19:                                               ; preds = %.backedge
  %20 = load i16, ptr %10, align 4
  %21 = and i16 %20, 8192
  %.not29.not = icmp eq i16 %21, 0
  br i1 %.not29.not, label %.backedge.backedge, label %.critedge

22:                                               ; preds = %.backedge
  %23 = load i16, ptr %10, align 4
  %24 = and i16 %23, 2048
  %.not28.not = icmp eq i16 %24, 0
  br i1 %.not28.not, label %.backedge.backedge, label %.critedge

25:                                               ; preds = %.backedge
  %26 = load i16, ptr %10, align 4
  %27 = and i16 %26, 512
  %.not27.not = icmp eq i16 %27, 0
  br i1 %.not27.not, label %.backedge.backedge, label %.critedge

28:                                               ; preds = %.backedge
  %29 = load i16, ptr %10, align 4
  %30 = and i16 %29, 256
  %.not26.not = icmp eq i16 %30, 0
  br i1 %.not26.not, label %.backedge.backedge, label %.critedge

31:                                               ; preds = %.backedge
  %32 = load i16, ptr %10, align 4
  %33 = and i16 %32, 128
  %.not25.not = icmp eq i16 %33, 0
  br i1 %.not25.not, label %.backedge.backedge, label %.critedge

34:                                               ; preds = %.backedge
  %35 = load i16, ptr %10, align 4
  %36 = and i16 %35, 64
  %.not24.not = icmp eq i16 %36, 0
  br i1 %.not24.not, label %.backedge.backedge, label %.critedge

37:                                               ; preds = %.backedge
  %38 = load i16, ptr %10, align 4
  %39 = and i16 %38, 64
  %.not23.not = icmp eq i16 %39, 0
  br i1 %.not23.not, label %.backedge.backedge, label %.critedge

40:                                               ; preds = %.backedge
  %41 = load i16, ptr %10, align 4
  %42 = and i16 %41, 1024
  %.not31.not = icmp eq i16 %42, 0
  br i1 %.not31.not, label %.backedge.backedge, label %.critedge

43:                                               ; preds = %.backedge
  %44 = load i16, ptr %10, align 4
  %45 = and i16 %44, 4096
  %.not32.not = icmp eq i16 %45, 0
  br i1 %.not32.not, label %.backedge.backedge, label %.critedge

.backedge.backedge:                               ; preds = %43, %16, %19, %22, %25, %28, %31, %34, %37, %40
  br label %.backedge, !llvm.loop !10

.critedge:                                        ; preds = %40, %37, %34, %31, %28, %25, %22, %19, %16, %.backedge, %43
  store i32 %15, ptr %11, align 4
  %46 = load i32, ptr @ett_mms_AccessResult, align 4
  %47 = call i32 @dissect_ber_choice(ptr noundef %3, ptr noundef %4, ptr noundef %1, i32 noundef %2, ptr noundef nonnull @AccessResult_choice, i32 noundef %5, i32 noundef %46, ptr noundef nonnull %7)
  %48 = load i32, ptr %7, align 4
  %49 = getelementptr inbounds nuw i8, ptr %9, i64 64
  store i32 %48, ptr %49, align 8
  br label %50

50:                                               ; preds = %.critedge.thread, %.critedge
  %51 = phi i32 [ %13, %.critedge.thread ], [ %47, %.critedge ]
  call void @llvm.lifetime.end.p0(i64 4, ptr nonnull %7) #8
  ret i32 %51
}